target datalayout = "e-m:e-p270:32:32-p271:32:32-p272:64:64-i64:64-i128:128-f80:128-n8:16:32:64-S128"
target triple = "x86_64-pc-linux-gnu"

; Function Attrs: nounwind uwtable
define dso_local void @bit_or(ptr noundef %0, ptr noundef %1) #0 {
  %3 = alloca ptr, align 8
  %4 = alloca ptr, align 8
  %5 = alloca i64, align 8
  %6 = alloca i64, align 8
  %7 = alloca i64, align 8
  store ptr %0, ptr %3, align 8
  store ptr %1, ptr %4, align 8
  call void @llvm.lifetime.start.p0(i64 8, ptr %5) #12
  call void @llvm.lifetime.start.p0(i64 8, ptr %6) #12
  br label %8

8:                                                ; preds = %2
  br label %9

9:                                                ; preds = %8
  br label %10

10:                                               ; preds = %9
  br label %11

11:                                               ; preds = %10
  br label %12

12:                                               ; preds = %11
  br label %13

13:                                               ; preds = %12
  %14 = load ptr, ptr %3, align 8
  %15 = getelementptr inbounds i64, ptr %14, i64 1
  %16 = load i64, ptr %15, align 8
  %17 = load ptr, ptr %4, align 8
  %18 = getelementptr inbounds i64, ptr %17, i64 1
  %19 = load i64, ptr %18, align 8
  %20 = icmp slt i64 %16, %19
  br i1 %20, label %21, label %25

21:                                               ; preds = %13
  %22 = load ptr, ptr %3, align 8
  %23 = getelementptr inbounds i64, ptr %22, i64 1
  %24 = load i64, ptr %23, align 8
  br label %29

25:                                               ; preds = %13
  %26 = load ptr, ptr %4, align 8
  %27 = getelementptr inbounds i64, ptr %26, i64 1
  %28 = load i64, ptr %27, align 8
  br label %29

29:                                               ; preds = %25, %21
  %30 = phi i64 [ %24, %21 ], [ %28, %25 ]
  store i64 %30, ptr %6, align 8
  store i64 0, ptr %5, align 8
  br label %31

31:                                               ; preds = %50, %29
  %32 = load i64, ptr %5, align 8
  %33 = add i64 %32, 64
  %34 = load i64, ptr %6, align 8
  %35 = icmp ule i64 %33, %34
  br i1 %35, label %36, label %53

36:                                               ; preds = %31
  %37 = load ptr, ptr %4, align 8
  %38 = load i64, ptr %5, align 8
  %39 = ashr i64 %38, 6
  %40 = add nsw i64 %39, 2
  %41 = getelementptr inbounds i64, ptr %37, i64 %40
  %42 = load i64, ptr %41, align 8
  %43 = load ptr, ptr %3, align 8
  %44 = load i64, ptr %5, align 8
  %45 = ashr i64 %44, 6
  %46 = add nsw i64 %45, 2
  %47 = getelementptr inbounds i64, ptr %43, i64 %46
  %48 = load i64, ptr %47, align 8
  %49 = or i64 %48, %42
  store i64 %49, ptr %47, align 8
  br label %50

50:                                               ; preds = %36
  %51 = load i64, ptr %5, align 8
  %52 = add i64 %51, 64
  store i64 %52, ptr %5, align 8
  br label %31, !llvm.loop !18

53:                                               ; preds = %31
  %54 = load i64, ptr %5, align 8
  %55 = load i64, ptr %6, align 8
  %56 = icmp slt i64 %54, %55
  br i1 %56, label %57, label %77

57:                                               ; preds = %53
  call void @llvm.lifetime.start.p0(i64 8, ptr %7) #12
  %58 = load i64, ptr %6, align 8
  %59 = and i64 %58, 63
  %60 = shl i64 1, %59
  %61 = sub nsw i64 %60, 1
  store i64 %61, ptr %7, align 8
  %62 = load ptr, ptr %4, align 8
  %63 = load i64, ptr %5, align 8
  %64 = ashr i64 %63, 6
  %65 = add nsw i64 %64, 2
  %66 = getelementptr inbounds i64, ptr %62, i64 %65
  %67 = load i64, ptr %66, align 8
  %68 = load i64, ptr %7, align 8
  %69 = and i64 %67, %68
  %70 = load ptr, ptr %3, align 8
  %71 = load i64, ptr %5, align 8
  %72 = ashr i64 %71, 6
  %73 = add nsw i64 %72, 2
  %74 = getelementptr inbounds i64, ptr %70, i64 %73
  %75 = load i64, ptr %74, align 8
  %76 = or i64 %75, %69
  store i64 %76, ptr %74, align 8
  call void @llvm.lifetime.end.p0(i64 8, ptr %7) #12
  br label %77

77:                                               ; preds = %57, %53
  call void @llvm.lifetime.end.p0(i64 8, ptr %6) #12
  call void @llvm.lifetime.end.p0(i64 8, ptr %5) #12
  ret void
}